; Function Attrs: nounwind uwtable
define zeroext range(i8 0, 2) i8 @l_List_elem___at_Lean_catchInternalIds___spec__1(ptr noundef %0, ptr noundef %1) local_unnamed_addr #1 {
  %3 = ptrtoint ptr %0 to i64
  %4 = and i64 %3, 1
  %.not = icmp eq i64 %4, 0
  br i1 %.not, label %.split.us, label %.split

.split.us:                                        ; preds = %2, %.critedge.i.us
  %.011.us = phi ptr [ %17, %.critedge.i.us ], [ %1, %2 ]
  %5 = ptrtoint ptr %.011.us to i64
  %6 = and i64 %5, 1
  %.not.i.us = icmp eq i64 %6, 0
  br i1 %.not.i.us, label %10, label %7

7:                                                ; preds = %.split.us
  %8 = lshr i64 %5, 1
  %9 = trunc i64 %8 to i32
  br label %lean_obj_tag.exit.us

10:                                               ; preds = %.split.us
  %11 = getelementptr i8, ptr %.011.us, i64 4
  %.val.i.us = load i32, ptr %11, align 4
  %12 = lshr i32 %.val.i.us, 24
  br label %lean_obj_tag.exit.us

lean_obj_tag.exit.us:                             ; preds = %10, %7
  %.0.i13.us = phi i32 [ %9, %7 ], [ %12, %10 ]
  %13 = icmp eq i32 %.0.i13.us, 0
  br i1 %13, label %.split17.us, label %.critedge.i.us

.critedge.i.us:                                   ; preds = %lean_obj_tag.exit.us
  %14 = getelementptr inbounds nuw i8, ptr %.011.us, i64 8
  %15 = load ptr, ptr %14, align 8, !tbaa !9
  %16 = getelementptr inbounds nuw i8, ptr %.011.us, i64 16
  %17 = load ptr, ptr %16, align 8, !tbaa !9
  %18 = tail call zeroext i1 @lean_nat_big_eq(ptr noundef %0, ptr noundef %15) #7
  br i1 %18, label %.split17.us, label %.split.us

.split:                                           ; preds = %2, %.split.backedge
  %.011 = phi ptr [ %32, %.split.backedge ], [ %1, %2 ]
  %19 = ptrtoint ptr %.011 to i64
  %20 = and i64 %19, 1
  %.not.i = icmp eq i64 %20, 0
  br i1 %.not.i, label %24, label %21

21:                                               ; preds = %.split
  %22 = lshr i64 %19, 1
  %23 = trunc i64 %22 to i32
  br label %lean_obj_tag.exit

24:                                               ; preds = %.split
  %25 = getelementptr i8, ptr %.011, i64 4
  %.val.i = load i32, ptr %25, align 4
  %26 = lshr i32 %.val.i, 24
  br label %lean_obj_tag.exit

lean_obj_tag.exit:                                ; preds = %21, %24
  %.0.i13 = phi i32 [ %23, %21 ], [ %26, %24 ]
  %27 = icmp eq i32 %.0.i13, 0
  br i1 %27, label %.split17.us, label %28

28:                                               ; preds = %lean_obj_tag.exit
  %29 = getelementptr inbounds nuw i8, ptr %.011, i64 8
  %30 = load ptr, ptr %29, align 8, !tbaa !9
  %31 = getelementptr inbounds nuw i8, ptr %.011, i64 16
  %32 = load ptr, ptr %31, align 8, !tbaa !9
  %33 = ptrtoint ptr %30 to i64
  %34 = and i64 %33, 1
  %.not18 = icmp eq i64 %34, 0
  br i1 %.not18, label %lean_nat_eq.exit, label %35, !prof !18

35:                                               ; preds = %28
  %36 = icmp eq ptr %0, %30
  br i1 %36, label %.split17.us, label %.split.backedge

lean_nat_eq.exit:                                 ; preds = %28
  %37 = tail call zeroext i1 @lean_nat_big_eq(ptr noundef %0, ptr noundef %30) #7
  br i1 %37, label %.split17.us, label %.split.backedge

.split.backedge:                                  ; preds = %lean_nat_eq.exit, %35
  br label %.split

.split17.us:                                      ; preds = %lean_obj_tag.exit, %lean_nat_eq.exit, %35, %lean_obj_tag.exit.us, %.critedge.i.us
  %.us-phi = phi i8 [ 1, %.critedge.i.us ], [ 0, %lean_obj_tag.exit.us ], [ 1, %35 ], [ 1, %lean_nat_eq.exit ], [ 0, %lean_obj_tag.exit ]
  ret i8 %.us-phi
}